; Function Attrs: mustprogress nounwind uwtable
define hidden void @_ZN13CodeHeapState17discard_FreeArrayEP12outputStream(ptr nocapture noundef readnone %0) local_unnamed_addr #1 align 2 {
  %2 = load ptr, ptr @_ZL9FreeArray, align 8
  %.not = icmp eq ptr %2, null
  br i1 %.not, label %4, label %3

3:                                                ; preds = %1
  tail call void @_Z8FreeHeapPv(ptr noundef nonnull %2) #12
  store ptr null, ptr @_ZL9FreeArray, align 8
  store i32 0, ptr @_ZL16alloc_freeBlocks, align 4
  br label %4

4:                                                ; preds = %3, %1
  ret void
}